; Function Attrs: mustprogress uwtable
define void @_Z15assert_shape_2dP11ggml_tensorll(ptr noundef readonly captures(none) %tensor, i64 noundef %ne0, i64 noundef %ne1) local_unnamed_addr #3 {
entry:
  %ne = getelementptr inbounds nuw i8, ptr %tensor, i64 16
  %0 = load i64, ptr %ne, align 8
  %cmp = icmp eq i64 %0, %ne0
  br i1 %cmp, label %do.body2, label %if.then

if.then:                                          ; preds = %entry
  %1 = load ptr, ptr @stdout, align 8
  %call = tail call i32 @fflush(ptr noundef %1)
  %2 = load ptr, ptr @stderr, align 8
  %call1 = tail call i32 (ptr, ptr, ...) @fprintf(ptr noundef %2, ptr noundef nonnull @.str.2, ptr noundef nonnull @.str.3, i32 noundef 193, ptr noundef nonnull @.str.4) #39
  tail call void @ggml_print_backtrace()
  tail call void @abort() #41
  unreachable

do.body2:                                         ; preds = %entry
  %arrayidx4 = getelementptr inbounds nuw i8, ptr %tensor, i64 24
  %3 = load i64, ptr %arrayidx4, align 8
  %cmp5 = icmp eq i64 %3, %ne1
  br i1 %cmp5, label %do.body11, label %if.then6

if.then6:                                         ; preds = %do.body2
  %4 = load ptr, ptr @stdout, align 8
  %call7 = tail call i32 @fflush(ptr noundef %4)
  %5 = load ptr, ptr @stderr, align 8
  %call8 = tail call i32 (ptr, ptr, ...) @fprintf(ptr noundef %5, ptr noundef nonnull @.str.2, ptr noundef nonnull @.str.3, i32 noundef 194, ptr noundef nonnull @.str.8) #39
  tail call void @ggml_print_backtrace()
  tail call void @abort() #41
  unreachable

do.body11:                                        ; preds = %do.body2
  %arrayidx13 = getelementptr inbounds nuw i8, ptr %tensor, i64 32
  %6 = load i64, ptr %arrayidx13, align 8
  %cmp14 = icmp eq i64 %6, 1
  br i1 %cmp14, label %do.body20, label %if.then15

if.then15:                                        ; preds = %do.body11
  %7 = load ptr, ptr @stdout, align 8
  %call16 = tail call i32 @fflush(ptr noundef %7)
  %8 = load ptr, ptr @stderr, align 8
  %call17 = tail call i32 (ptr, ptr, ...) @fprintf(ptr noundef %8, ptr noundef nonnull @.str.2, ptr noundef nonnull @.str.3, i32 noundef 195, ptr noundef nonnull @.str.6) #39
  tail call void @ggml_print_backtrace()
  tail call void @abort() #41
  unreachable

do.body20:                                        ; preds = %do.body11
  %arrayidx22 = getelementptr inbounds nuw i8, ptr %tensor, i64 40
  %9 = load i64, ptr %arrayidx22, align 8
  %cmp23 = icmp eq i64 %9, 1
  br i1 %cmp23, label %do.end28, label %if.then24

if.then24:                                        ; preds = %do.body20
  %10 = load ptr, ptr @stdout, align 8
  %call25 = tail call i32 @fflush(ptr noundef %10)
  %11 = load ptr, ptr @stderr, align 8
  %call26 = tail call i32 (ptr, ptr, ...) @fprintf(ptr noundef %11, ptr noundef nonnull @.str.2, ptr noundef nonnull @.str.3, i32 noundef 196, ptr noundef nonnull @.str.7) #39
  tail call void @ggml_print_backtrace()
  tail call void @abort() #41
  unreachable

do.end28:                                         ; preds = %do.body20
  ret void
}